; Function Attrs: mustprogress nounwind uwtable
define hidden noundef zeroext i1 @_ZN22ShenandoahBarrierSetC224is_shenandoah_state_loadEP4Node(ptr nocapture noundef readonly %0) local_unnamed_addr #1 align 2 {
  %2 = getelementptr inbounds i8, ptr %0, i64 44
  %3 = load i32, ptr %2, align 4
  %4 = and i32 %3, 63
  %5 = icmp eq i32 %4, 48
  br i1 %5, label %6, label %43

6:                                                ; preds = %1
  %7 = getelementptr inbounds i8, ptr %0, i64 8
  %8 = load ptr, ptr %7, align 8
  %9 = getelementptr inbounds i8, ptr %8, i64 16
  %10 = load ptr, ptr %9, align 8
  %11 = getelementptr inbounds i8, ptr %10, i64 44
  %12 = load i32, ptr %11, align 4
  %13 = and i32 %12, 1023
  %14 = icmp eq i32 %13, 512
  br i1 %14, label %15, label %43

15:                                               ; preds = %6
  %16 = getelementptr inbounds i8, ptr %10, i64 8
  %17 = load ptr, ptr %16, align 8
  %18 = getelementptr inbounds i8, ptr %17, i64 16
  %19 = load ptr, ptr %18, align 8
  %20 = load ptr, ptr %19, align 8
  %21 = load ptr, ptr %20, align 8
  %22 = tail call noundef i32 %21(ptr noundef nonnull align 8 dereferenceable(52) %19) #14
  %23 = icmp eq i32 %22, 347
  br i1 %23, label %24, label %43

24:                                               ; preds = %15
  %25 = load ptr, ptr %7, align 8
  %26 = getelementptr inbounds i8, ptr %25, i64 16
  %27 = load ptr, ptr %26, align 8
  %28 = getelementptr inbounds i8, ptr %27, i64 8
  %29 = load ptr, ptr %28, align 8
  %30 = getelementptr inbounds i8, ptr %29, i64 24
  %31 = load ptr, ptr %30, align 8
  %32 = getelementptr inbounds i8, ptr %31, i64 48
  %33 = load i32, ptr %32, align 8
  %34 = and i32 %33, 16
  %.not = icmp eq i32 %34, 0
  br i1 %.not, label %43, label %35

35:                                               ; preds = %24
  %36 = load ptr, ptr %31, align 8
  %37 = getelementptr inbounds i8, ptr %36, i64 40
  %38 = load ptr, ptr %37, align 8
  %39 = tail call noundef ptr %38(ptr noundef nonnull align 8 dereferenceable(52) %31) #14
  %40 = getelementptr inbounds i8, ptr %39, i64 24
  %41 = load i64, ptr %40, align 8
  %42 = icmp eq i64 %41, 40
  br label %43

43:                                               ; preds = %6, %15, %24, %35, %1
  %.0 = phi i1 [ false, %1 ], [ false, %24 ], [ false, %15 ], [ false, %6 ], [ %42, %35 ]
  ret i1 %.0
}